; Function Attrs: mustprogress uwtable
define hidden void @_ZN2cv13wechat_qrcode9ImgSource8makeGrayEv(ptr noundef nonnull align 8 captures(none) dereferenceable(80) %0) local_unnamed_addr #0 align 2 personality ptr @__gxx_personality_v0 {
  %2 = getelementptr inbounds nuw i8, ptr %0, i64 64
  %3 = load i32, ptr %2, align 8
  %4 = getelementptr inbounds nuw i8, ptr %0, i64 68
  %5 = load i32, ptr %4, align 4
  %6 = mul nsw i32 %5, %3
  %7 = tail call noalias noundef nonnull dereferenceable(40) ptr @_Znwm(i64 noundef 40) #14
  invoke void @_ZN5zxing5ArrayIcEC2Ei(ptr noundef nonnull align 8 dereferenceable(40) %7, i32 noundef %6)
          to label %10 unwind label %8

8:                                                ; preds = %1
  %9 = landingpad { ptr, i32 }
          cleanup
  tail call void @_ZdlPv(ptr noundef nonnull %7) #16
  resume { ptr, i32 } %9

10:                                               ; preds = %1
  %11 = getelementptr inbounds nuw i8, ptr %7, i64 8
  %12 = load i32, ptr %11, align 8
  %13 = add i32 %12, 2
  store i32 %13, ptr %11, align 8
  %14 = getelementptr inbounds nuw i8, ptr %0, i64 40
  %15 = load ptr, ptr %14, align 8
  %.not5.i.i.i = icmp eq ptr %15, null
  br i1 %.not5.i.i.i, label %25, label %16

16:                                               ; preds = %10
  %17 = getelementptr inbounds nuw i8, ptr %15, i64 8
  %18 = load i32, ptr %17, align 8
  %19 = add i32 %18, -1
  store i32 %19, ptr %17, align 8
  %20 = icmp eq i32 %19, 0
  br i1 %20, label %21, label %25

21:                                               ; preds = %16
  store i32 -559026175, ptr %17, align 8
  %22 = load ptr, ptr %15, align 8
  %23 = getelementptr inbounds nuw i8, ptr %22, i64 8
  %24 = load ptr, ptr %23, align 8
  tail call void %24(ptr noundef nonnull align 8 dereferenceable(12) %15) #15
  br label %25

25:                                               ; preds = %10, %16, %21
  store ptr %7, ptr %14, align 8
  %26 = load i32, ptr %11, align 8
  %27 = add i32 %26, -1
  store i32 %27, ptr %11, align 8
  %28 = icmp eq i32 %27, 0
  br i1 %28, label %29, label %_ZN5zxing8ArrayRefIcED2Ev.exit

29:                                               ; preds = %25
  store i32 -559026175, ptr %11, align 8
  %30 = load ptr, ptr %7, align 8
  %31 = getelementptr inbounds nuw i8, ptr %30, i64 8
  %32 = load ptr, ptr %31, align 8
  tail call void %32(ptr noundef nonnull align 8 dereferenceable(12) %7) #15
  %.pre = load ptr, ptr %14, align 8
  br label %_ZN5zxing8ArrayRefIcED2Ev.exit

_ZN5zxing8ArrayRefIcED2Ev.exit:                   ; preds = %25, %29
  %33 = phi ptr [ %7, %25 ], [ %.pre, %29 ]
  %34 = getelementptr inbounds nuw i8, ptr %0, i64 48
  %35 = load ptr, ptr %34, align 8
  %36 = getelementptr inbounds nuw i8, ptr %33, i64 16
  %37 = load ptr, ptr %36, align 8
  %38 = sext i32 %6 to i64
  tail call void @llvm.memcpy.p0.p0.i64(ptr align 1 %37, ptr readonly align 1 %35, i64 %38, i1 false)
  ret void
}